(lp0
(lp1
(lp2
F2.816618663697012
aF2.059944824429548
aF1.3025010280903853
aF2.107211420021305
aF2.963010351917742
aF2.165230806184072
aF1.9086710608628572
aa(lp3
F1.6173256549074708
aF2.3824373348395067
aF1.469867037562933
aF0.7385123910903248
aF0.7047876314625082
aF1.4374515703785493
aF1.6646891557242003
aa(lp4
F2.5494817580238966
aF2.821939771915019
aF2.7935599747676707
aF2.5023764096626575
aF3.21568803773534
aF3.4510659116140996
aF1.9192307352943727
aaa(lp5
(lp6
F2.38661699831016
aF1.4567344924899677
aF2.1176428451554905
aF1.5589605864666407
aF2.370236134114811
aF3.1601923768240994
aF3.1865824845065016
aa(lp7
F0.8592083928091332
aF0.5599708433228356
aF1.2833981059588875
aF1.566527119608357
aF0.23754841111338804
aF1.0298686070301541
aF0.12026309741377311
aa(lp8
F2.3263756524441206
aF1.8288908692246038
aF1.2489706334534492
aF2.1084454759966667
aF1.4059310232812174
aF1.4524453966361577
aF2.1797659619923206
aaa(lp9
(lp10
F1.2552567477247836
aF1.8034608719110634
aF1.8082705807107475
aF2.359182714476598
aF1.767344786845379
aF2.7223615347737677
aF0.8665254690015753
aa(lp11
F1.8066695584985695
aF1.506273027894168
aF2.315483445016925
aF1.7017001227512918
aF2.6019720493501572
aF2.134864938320824
aF2.102695865220375
aa(lp12
F2.0977194772930043
aF1.1806592113207361
aF0.47044583653171057
aF2.139691529302261
aF1.575753866014789
aF1.1446178853232014
aF1.1043103281804512
aaa(lp13
(lp14
F2.496970992052736
aF2.4848101810620156
aF1.7312849288872956
aF1.7295116191913662
aF2.5009422461552706
aF2.554584908242457
aF3.318830207908459
aa(lp15
F0.8165138978325308
aF2.4577631497681693
aF1.611433700969601
aF2.249117416556943
aF1.71765630638367
aF1.5354461585100332
aF1.6250990808457388
aa(lp16
F2.5333348285069155
aF2.386293013596909
aF2.447511851620247
aF1.5432704023461445
aF3.213899917936205
aF1.708119023195503
aF2.4952612622515415
aaa(lp17
(lp18
F1.8292862362924525
aF1.0516243703314423
aF1.9163096396355037
aF1.527410376805079
aF0.9388633629588451
aF1.706608976685729
aF2.7254050436495008
aa(lp19
F3.971458797292636
aF2.3609421626833416
aF2.795785210023566
aF3.288328392731291
aF3.312216496429973
aF3.55096641068414
aF3.4987491626837905
aa(lp20
F1.8462254669423583
aF1.3753255912833775
aF1.9231579424175729
aF1.0316283041356769
aF2.0320990391460265
aF2.84139646669444
aF2.3270703603992278
aaa(lp21
(lp22
F1.7996862936551807
aF2.8151901553751033
aF2.811329288852409
aF3.0914558951687536
aF3.6287818157855054
aF2.2871668912576917
aF2.5580521306490454
aa(lp23
F1.4406902705478053
aF1.3566277995574718
aF1.887249833855918
aF0.26553572513096013
aF1.152144492826567
aF2.3732110194674227
aF0.8220736125052903
aa(lp24
F1.4296458963063168
aF0.9354511963683837
aF1.9265214925044318
aF1.1410133520769599
aF1.6631751501171648
aF1.0569738879812585
aF1.9512305297121888
aaa(lp25
(lp26
F2.9950265602999666
aF2.313581317905229
aF1.4082571387005536
aF2.283792542484704
aF2.134449400621709
aF1.3714239595650972
aF2.1501550168459893
aa(lp27
F1.376872434737249
aF1.7331270407825636
aF1.5748491046272377
aF2.2462482927983785
aF0.7506054872108822
aF2.1537119784950924
aF1.316853323439135
aa(lp28
F2.6643909959703227
aF3.470428833653994
aF2.7780896268005586
aF2.4820424964112315
aF2.951987279378126
aF1.815557815454523
aF1.9142138482124678
aaa(lp29
(lp30
F3.2484193374951476
aF3.8744938525717396
aF4.040689040570148
aF2.7833889223091566
aF3.886097983053154
aF3.6385239180771354
aF4.392027971939502
aa(lp31
F1.2919157302096438
aF1.1619984908961882
aF0.4916333403549011
aF1.5660436020010409
aF1.1565417351648049
aF2.159870809785932
aF1.5215136594157952
aa(lp32
F2.564145444003166
aF3.522589110547806
aF2.5812363812087735
aF3.5338768451081584
aF1.6489844108895342
aF3.1092175031877898
aF2.5524818864143914
aaa(lp33
(lp34
F0.6414268758146737
aF0.372879570887735
aF0.978893093127843
aF1.6880501730410495
aF-0.06136683143464499
aF0.751788328630875
aF1.4499956210986766
aa(lp35
F1.1492456864143563
aF0.2572338672444947
aF1.0881498340828144
aF1.4951460600509932
aF1.3214576889667393
aF2.060841529058873
aF0.37671259559563225
aa(lp36
F3.9579855723332376
aF3.3257322429286607
aF2.8760304260211247
aF3.6241943823426523
aF3.1177940429817372
aF3.3382650214973446
aF3.605978508485915
aaa(lp37
(lp38
F2.1732425417486523
aF2.4844158780718715
aF2.5938109325460847
aF1.6589140037963763
aF3.276902479644878
aF3.461791219035611
aF2.596761831093633
aa(lp39
F2.45946427254309
aF2.735758801968316
aF1.9723812740083881
aF2.5111483793725475
aF2.4879768813688776
aF2.591448208484866
aF3.144112406445626
aa(lp40
F2.782945712296133
aF0.9781377580514513
aF1.833221796112818
aF1.7276256321852765
aF2.604947490857195
aF1.5069471472787517
aF1.9900607081988997
aaa(lp41
(lp42
F2.0485243795075516
aF2.0661401476485586
aF1.245126807420897
aF1.7478968711975087
aF1.0951776658009302
aF2.3275894513370576
aF2.840469951881651
aa(lp43
F2.406942426191861
aF1.3389810740820665
aF2.8573093789434245
aF1.905657278002901
aF1.873091456474354
aF2.878769391104758
aF1.9794843377442144
aa(lp44
F2.250280995242843
aF2.125392834776293
aF1.6088686252530817
aF1.1767908907132765
aF2.1149299289478023
aF1.2067713913857747
aF1.6147615350570168
aaa(lp45
(lp46
F3.587800054361391
aF2.97476217089265
aF3.1211459470456075
aF2.8534853191285983
aF1.9302661195659852
aF2.1040085479354875
aF2.4770391598631036
aa(lp47
F1.4607125123701739
aF2.2384559263214046
aF2.1954754578901556
aF1.20144851165218
aF1.8676797069814948
aF2.418486592006344
aF1.393986512415972
aa(lp48
F1.5290027604304988
aF1.9565039815754313
aF0.8423079446935176
aF2.3544508780611233
aF2.1445703500526974
aF1.2714322306223187
aF1.3293404518680827
aaa(lp49
(lp50
F2.778710585525427
aF3.386385625864833
aF3.02776926775362
aF1.9471347489152098
aF3.861118098788785
aF2.8791966899314865
aF2.2898144449391533
aa(lp51
F2.8176536061952597
aF2.592081407858048
aF1.7411238080292286
aF1.9728376465638628
aF2.5097513464575973
aF1.6695385089156554
aF2.4693375648810787
aa(lp52
F1.4008910078597372
aF2.428809727449363
aF1.7315950663634139
aF1.4437765458863152
aF1.4112603458047854
aF2.8493166700199524
aF2.3452864211029456
aaa(lp53
(lp54
F1.7252999666969862
aF1.3595784292507194
aF2.648445095025066
aF0.9498197482154738
aF1.1244360291193527
aF1.6811781445741978
aF1.9592122347752066
aa(lp55
F2.520863514205791
aF0.7228652536510992
aF1.9454700096910769
aF1.7653139612433955
aF1.1328448407949818
aF1.4887546805032954
aF1.5369445101788137
aa(lp56
F0.8890887369789288
aF0.6500342504155954
aF1.1855550137532063
aF0.6164613578112479
aF-0.39415218528678597
aF1.3972924566286333
aF0.27197056718303414
aaa(lp57
(lp58
F1.5599833038460083
aF2.136320484332176
aF2.2845736649835433
aF1.6463292031256593
aF2.5250377384467173
aF1.6073426922800655
aF2.5169970180015917
aa(lp59
F1.6168174845865397
aF1.0093011761494681
aF0.05335450311965231
aF0.8839888081316403
aF1.0299479703906589
aF0.46409703191362056
aF1.9919545113359212
aa(lp60
F1.9775647731474295
aF2.857299499871111
aF1.3172545209600197
aF1.059568887156463
aF1.81921859368061
aF2.10316040497214
aF2.3451336391678397
aaa(lp61
(lp62
F0.4827567858146576
aF1.4609339689473602
aF2.5712244308486505
aF2.176819720410035
aF2.1749847446283184
aF1.3725975989105408
aF1.1361338239900516
aa(lp63
F1.7512275702983817
aF2.2723945173269047
aF2.426996005689112
aF1.572104631365568
aF1.586942200051172
aF1.080379281639928
aF1.690418406644383
aa(lp64
F1.8050017938085918
aF1.7573661397704738
aF1.8047932004612068
aF2.3677963745926003
aF1.256432826911893
aF1.7484343114198504
aF0.8442013076814742
aaa(lp65
(lp66
F2.1337106431632002
aF3.209098241030064
aF1.4411533365505964
aF3.232283041588522
aF2.2819217573359585
aF2.5745479908159017
aF2.4904029724071157
aa(lp67
F2.524185274340855
aF2.186291328303681
aF2.0835323524993457
aF1.0690306644872936
aF1.5397737366760074
aF1.6484422798380705
aF2.4535578457323663
aa(lp68
F0.40129280708721937
aF0.5720624755584874
aF1.1861442493174956
aF0.43543318602429465
aF0.9196527467635006
aF-0.2252027562810982
aF1.4287595060700635
aaa(lp69
(lp70
F1.0418697884217574
aF1.3714721866444188
aF2.497049573805483
aF0.8398582225766048
aF1.8673439313136386
aF2.037728921748595
aF1.184807216822159
aa(lp71
F1.5592228874824519
aF2.6102584188835367
aF2.621285405549946
aF2.2419364722562247
aF1.8996166674317618
aF1.7849437082266526
aF1.2193998933696402
aa(lp72
F1.557908503282356
aF1.4912092778598278
aF1.594531465350037
aF2.4349133431765506
aF2.1735046128018696
aF1.113726458166595
aF2.6160864656406746
aaa(lp73
(lp74
F0.010639677617336286
aF1.3701350186203531
aF0.784832713011096
aF0.49587340097405536
aF0.9576835224243571
aF1.0095994820131329
aF1.8522163168166967
aa(lp75
F1.474080511542712
aF1.1203896908282611
aF1.8675612692718604
aF0.8546234940517146
aF0.8549090634185259
aF1.7943638403794766
aF1.520037054103001
aa(lp76
F1.9715552343820493
aF0.7584667491942287
aF1.260943326083763
aF2.7683583463332804
aF1.7627781343743703
aF2.3208366440432107
aF1.6618893025025605
aaa(lp77
(lp78
F2.355706865695664
aF2.65580317140818
aF2.4444817469761957
aF3.1773789648638155
aF2.832404461063847
aF3.4888154718644695
aF2.0939829267135877
aa(lp79
F3.780168079127257
aF2.997838432624161
aF3.344741448877012
aF3.139093895079344
aF2.3186306845172298
aF3.120574241844314
aF2.7306444424736687
aa(lp80
F2.2862676329450573
aF1.5091858061366654
aF3.312670270249574
aF2.531104594744192
aF3.1854985993469245
aF3.6389361151208015
aF2.4633042335945
aaa.I2
.F-16.364214470160444
.