(lp0
(lp1
(lp2
F1.1167290385852329
aF1.3187114797054782
aF1.933009832850203
aF2.0448938027881396
aF2.2845678183927194
aF2.1951701795930525
aF2.872834178669219
aa(lp3
F1.509864200169378
aF0.625586105375735
aF1.4816045983550743
aF0.749163071450294
aF-0.018997810011752304
aF0.6660992684408699
aF0.9419972518349178
aa(lp4
F0.1884482299886601
aF0.9045513385780057
aF0.8274032078994048
aF0.03416978676286122
aF0.8321673936859864
aF1.6252314509993855
aF0.7800045318130987
aaa(lp5
(lp6
F1.046786778682745
aF2.218748862034791
aF2.765624921311432
aF1.7415647865001094
aF1.1543471587125098
aF2.0140040898478233
aF0.6358193529442941
aa(lp7
F1.9122746284834997
aF2.162553829124031
aF1.5548672347514858
aF1.3275995122492144
aF2.269994851355446
aF2.378052150263471
aF1.3143218835636128
aa(lp8
F3.3889754298047428
aF1.98909736551847
aF2.8387172810867924
aF2.6434487234585675
aF2.3434158561209815
aF3.0892273558328878
aF2.5432307558309506
aaa(lp9
(lp10
F1.2180531427671657
aF1.1171080530211823
aF0.8304229813639169
aF1.818051044088157
aF2.4009040186906794
aF0.7418363096336413
aF1.7756071282459174
aa(lp11
F1.8823717337252897
aF1.6785193964231249
aF1.242660036901377
aF1.7606398666903573
aF1.7700442484924692
aF2.3603193628543164
aF0.8885667809361664
aa(lp12
F2.4216930328174
aF4.200359791407219
aF3.1463292265137377
aF3.335025872869205
aF2.4039822972598843
aF3.2770717372706204
aF2.64397601035623
aaa(lp13
(lp14
F1.7504815445840547
aF2.5345103459124343
aF1.7943897120542545
aF0.875354746113468
aF1.8767930588279569
aF1.4991234717989312
aF0.8071751292800309
aa(lp15
F2.1408632302958823
aF1.9950427625502718
aF2.915875280937473
aF1.534418560971109
aF1.11070741718583
aF1.944090876271203
aF2.5418852646458023
aa(lp16
F1.5530597781854678
aF2.250075099722783
aF2.377516640163209
aF1.8243883735675552
aF2.1728581876777175
aF2.703903444828033
aF2.0990641462703707
aaa(lp17
(lp18
F2.535633939020803
aF2.9406385304307623
aF2.9525425909869005
aF2.0817495921308944
aF2.106891189418251
aF1.9534981472304223
aF3.619744259408882
aa(lp19
F1.096066459390675
aF1.2777714035604426
aF2.181007790070436
aF2.1095110965871813
aF2.8677573294451175
aF1.717079868554296
aF1.3218002090937833
aa(lp20
F2.4996903484504878
aF3.558232908172767
aF2.9028129049189824
aF2.223392494072207
aF3.1281519180372905
aF3.2741273802175126
aF2.683952126216576
aaa(lp21
(lp22
F2.4064745806502628
aF1.8934395385620046
aF3.3099232005248593
aF2.49913853710833
aF1.5139625792812328
aF2.3271792824458917
aF1.9592272147090568
aa(lp23
F3.508499345073489
aF1.8844756095272264
aF2.777419003153181
aF2.7941306822816148
aF2.877768416397447
aF2.438281019526895
aF3.7637338471518578
aa(lp24
F2.1527592037923
aF1.410875038930487
aF2.049032609252456
aF1.2877040593197613
aF1.7069872356233564
aF2.312642423299643
aF1.1761322577888282
aaa(lp25
(lp26
F1.2359879716863
aF1.94420124600913
aF0.8974369450725321
aF1.8545488652718298
aF0.28103961443914677
aF1.06927613731686
aF0.9771934011454539
aa(lp27
F2.387106101509009
aF2.388372030837827
aF0.8625198034366525
aF1.4878673898042383
aF1.787428088673412
aF1.4823731104630211
aF1.7456669082420055
aa(lp28
F2.1139170256428867
aF1.2995171730563742
aF1.8663370562337482
aF1.9515995603399816
aF2.0518472937608543
aF2.7617752390289696
aF1.225231583066368
aaa(lp29
(lp30
F2.342516063240001
aF2.220949276992325
aF2.6224778971842047
aF1.7151619018910873
aF3.1877993575092334
aF1.4247488705029492
aF2.6126807850613663
aa(lp31
F0.7820673506372596
aF1.0294708257736638
aF1.8248574532659143
aF1.5915491904094985
aF1.1475480401823916
aF0.5622716183595551
aF2.03164601539478
aa(lp32
F1.4973966997656993
aF2.618123391628698
aF1.3229650609258925
aF1.9016448226745701
aF2.051671163367791
aF2.0153476679440354
aF2.39036118483485
aaa(lp33
(lp34
F2.747671297468634
aF1.8832376965103124
aF0.6439295608264525
aF1.1957737564664441
aF2.335018067763289
aF1.5242116882179801
aF1.6884536749563637
aa(lp35
F2.3785132525432533
aF2.77469426850704
aF2.7379521010534527
aF3.3751132635528043
aF3.454446504356022
aF3.432286676443579
aF2.483597030023646
aa(lp36
F1.672166185673152
aF2.3502316520465123
aF0.9666509814867716
aF1.7425272977876634
aF1.5124305328609438
aF0.6743281136739848
aF1.287401098609185
aaa(lp37
(lp38
F1.4294088719527238
aF1.6399259203155097
aF0.45405275312834065
aF0.6161250902962517
aF1.0229358823979144
aF2.1107463883763753
aF1.4311923407563776
aa(lp39
F2.763435998948589
aF1.5764380470589847
aF2.7270619037259687
aF1.9900423316032168
aF1.781113450256217
aF2.0041015618675235
aF2.637766215717772
aa(lp40
F1.9810233006809448
aF0.6176912424324316
aF1.3718622677538415
aF0.454165668295618
aF1.505977417920686
aF1.5178973040261412
aF0.8660325171031868
aaa(lp41
(lp42
F2.9347058714323615
aF2.6420373738142215
aF2.4355859978852776
aF3.11690116462947
aF1.8520879385120188
aF2.5232325160634383
aF2.083421215059701
aa(lp43
F1.8872495462639345
aF2.745904633350076
aF1.0197739392873497
aF1.8855773901350463
aF1.9450392748521002
aF1.107549901942935
aF2.160768293193031
aa(lp44
F1.7719807859884822
aF2.3860909445862313
aF2.301638467503631
aF2.8478823074311763
aF2.08969849406186
aF3.4904746940265956
aF3.152152162839581
aaa(lp45
(lp46
F1.6230845539322993
aF1.4949831445655197
aF2.4195455881804144
aF2.2256504593090436
aF2.414802559927246
aF3.0420798305485204
aF2.2229475243894883
aa(lp47
F1.5449525459843525
aF2.089388466385479
aF1.429038885779229
aF2.828636090896357
aF2.3557890285900696
aF2.2196740899805762
aF1.887385857410902
aa(lp48
F3.291928420428705
aF2.348468417322848
aF2.5123057890467506
aF2.134246866934483
aF3.1424025915086973
aF2.208658529626182
aF1.6093766842125374
aaa(lp49
(lp50
F2.0205455084835107
aF1.589477642670104
aF3.1759135649682952
aF2.673613200222099
aF2.6548893910771376
aF2.201790958167455
aF1.5634221566621929
aa(lp51
F1.2921072729453806
aF2.215336988213694
aF1.257118855122353
aF2.113065104501121
aF2.10381693997776
aF2.976436814710308
aF2.173941440414601
aa(lp52
F2.5960453308794675
aF3.152191411486156
aF2.5261574398839253
aF3.0795832845268456
aF1.9193294726215466
aF2.529646464630271
aF2.0219912917509966
aaa(lp53
(lp54
F2.149438091344001
aF2.7167520619963392
aF2.218641630260961
aF1.766015364393393
aF3.1972383372969935
aF1.6924958169604292
aF1.2558554627470977
aa(lp55
F2.8456769427702455
aF2.97654525427382
aF3.8656066114222165
aF3.4235154122654246
aF3.368445481675258
aF2.4245828217600907
aF3.335763119887681
aa(lp56
F2.3410900270546167
aF1.3600967654882943
aF1.8162312788885535
aF0.9232076649531303
aF2.2467827334908748
aF1.3927335789107267
aF1.9057011224620424
aaa(lp57
(lp58
F1.5974015333420857
aF0.814409685128238
aF1.3694687096840834
aF1.907513850973113
aF2.170991867180861
aF1.3858986873299268
aF1.0451062508978957
aa(lp59
F2.223646469596753
aF1.673423524008689
aF1.1970420300167022
aF1.4015465531206637
aF2.471715051966329
aF1.9432139822328578
aF2.741393550805407
aa(lp60
F3.3453766842337447
aF2.790523152062976
aF3.712689868877353
aF2.70321714477214
aF2.430472968061777
aF1.8579458710023207
aF2.5540580503303327
aaa(lp61
(lp62
F1.976584616305516
aF3.0923468554754474
aF1.3624600473122783
aF2.7286301469949636
aF2.1489104801559336
aF2.496289123849954
aF3.1912944529260985
aa(lp63
F2.238000779854847
aF2.110620724842705
aF1.4634206006370605
aF2.798919432984616
aF2.004732249742919
aF1.3020500953584755
aF1.7433517013731081
aa(lp64
F2.7329479827678904
aF2.839705551128495
aF2.2198755714873846
aF2.0873634989433802
aF1.6153594518705232
aF2.461983687434714
aF1.7873954321580903
aaa(lp65
(lp66
F3.2711924423363903
aF2.449024169061048
aF2.9952629752086444
aF3.096043091324633
aF3.3437890474361733
aF2.3678152368959804
aF2.0671393502010202
aa(lp67
F2.372948634180749
aF1.8045610842254398
aF1.2369252823526633
aF0.9381733441315517
aF1.992036494558121
aF2.0910335659834853
aF1.074524664855362
aa(lp68
F1.423432001242506
aF-0.26262029475896065
aF1.1650512711358374
aF0.12985020386072446
aF0.3581542533367386
aF0.8497547583845649
aF0.5158613645783033
aaa(lp69
(lp70
F2.9657582114800505
aF2.362215778012361
aF2.454695169855255
aF3.307496529554031
aF3.479934030992395
aF2.444342913768857
aF1.7901262800140838
aa(lp71
F1.0272906663822041
aF1.202256778376442
aF0.1842297096721851
aF0.5161593850045125
aF1.6452421893911133
aF2.0159345760897285
aF1.1115528864994237
aa(lp72
F2.2954230926043353
aF1.3423839169762837
aF1.8777337799119285
aF1.2719277997098617
aF1.578590902263831
aF2.10365636831115
aF2.2313200244957843
aaa(lp73
(lp74
F2.548114916069925
aF2.256755741951186
aF3.178929053784988
aF2.539487002062538
aF3.1071134022111178
aF3.160322668342322
aF2.148972174115387
aa(lp75
F0.5066224418299845
aF1.6242277988910143
aF1.2649571404264939
aF2.0648086231220644
aF2.3322258435359773
aF1.344135292065053
aF1.0120135090215785
aa(lp76
F1.356685724644977
aF1.36245391953659
aF1.897806699116864
aF2.3560796211780684
aF1.443972294317662
aF0.811410587260702
aF2.281942689195686
aaa(lp77
(lp78
F2.12087922144864
aF1.8391086295739594
aF2.492478901383099
aF3.128841920360259
aF2.6782005617123983
aF2.303823058144363
aF1.6363303720696103
aa(lp79
F2.465216847741277
aF2.7937907103845836
aF3.5826856202640793
aF2.6826698132350675
aF3.254247460472111
aF2.208184271036
aF3.124491701028057
aa(lp80
F2.77079989682696
aF0.8576618094639931
aF2.501567270514829
aF2.211773999358841
aF1.430540942887347
aF1.7023752319479608
aF1.9331328749856762
aaa.I9
.F-16.23353148815858
.