(lp0
(lp1
(lp2
F2.6900377809240896
aF2.5396784027768518
aF3.723248183839054
aF1.891799447713449
aF3.641369108699387
aF2.9030760621304506
aF3.1164798370579554
aa(lp3
F1.3861116475343076
aF2.396234156516416
aF1.4546185253695987
aF1.9514815285735756
aF2.190182713413285
aF2.269045864269108
aF1.5477352760990888
aa(lp4
F1.6461199484254723
aF2.101108133352957
aF1.172046172914495
aF1.3155490642711225
aF1.9942272445189237
aF1.0294126913086985
aF2.652454628709322
aaa(lp5
(lp6
F3.5436646645470113
aF4.480192342138357
aF4.273118241796166
aF4.221484822843284
aF4.9721585805873945
aF3.3050964872353723
aF3.942915102617595
aa(lp7
F1.3601478828732507
aF1.0581597820752249
aF2.1827197371953355
aF3.0227611498550164
aF2.2293623725020337
aF2.4433006674523225
aF2.030977196788289
aa(lp8
F2.0305704265195104
aF2.7521045418898273
aF1.6881345211145717
aF2.3428089642247305
aF2.517856572249824
aF1.9896841788671553
aF2.8105130874601842
aaa(lp9
(lp10
F3.779468543631441
aF4.334507249502202
aF3.3314616219727626
aF3.464151404559881
aF2.6894658773802997
aF4.284161681273346
aF3.1503066758048943
aa(lp11
F3.126556726756971
aF3.6439105187372673
aF3.387899152559149
aF4.3192320367164
aF3.481624372233973
aF4.086031452623977
aF3.6800326869096027
aa(lp12
F3.334363818673651
aF2.5945430222274197
aF2.2238256087570405
aF2.9152519471634
aF3.11791558524214
aF3.655520648232557
aF4.117022544565613
aaa(lp13
(lp14
F2.8938394473689826
aF2.029381731767281
aF2.309372795884034
aF3.204874476244272
aF2.9246729125931505
aF3.140087618007718
aF2.398156098572757
aa(lp15
F2.8728835290533077
aF2.9245500355604337
aF3.3066829986489847
aF2.0826134955613336
aF2.36694776001413
aF3.3101402166211815
aF1.8358066748134
aa(lp16
F2.073475853265635
aF3.0075007982937128
aF3.8541466644999822
aF2.8669609095671356
aF3.917486949081833
aF3.1256323056457775
aF2.278178231056312
aaa(lp17
(lp18
F0.834881023762562
aF1.4251640016436689
aF0.659186034765454
aF1.331494791473698
aF1.7189603829078133
aF1.0617029617019362
aF1.4552002835101991
aa(lp19
F0.0324497232916925
aF-0.25454346572143377
aF0.8337527743086879
aF0.7088041058114618
aF0.6118105886507205
aF1.2469057683856137
aF1.6814981801595603
aa(lp20
F2.220711109398555
aF1.2830960857242564
aF1.5977866739591875
aF0.754466575580057
aF1.8853115639572766
aF2.4880553148217324
aF1.4790631257695603
aaa(lp21
(lp22
F1.0862119313132734
aF2.029963791905915
aF1.2102231363286913
aF0.26205444638196584
aF1.25247944661285
aF0.39635795858063605
aF1.215084697530408
aa(lp23
F3.342849568962204
aF2.8332151329750275
aF2.7089284821934143
aF2.6542625851073494
aF2.022483817277309
aF1.971679830175674
aF2.819366428062512
aa(lp24
F2.11575084027598
aF2.128353115259988
aF2.9402903582083066
aF1.6926559372563101
aF1.8657703408610462
aF2.5318488019808463
aF1.2085091040738096
aaa(lp25
(lp26
F3.7111147574175587
aF2.15174092754375
aF2.1889509410696357
aF3.00552322984656
aF2.659158574103037
aF3.1268671844892815
aF3.348396538893783
aa(lp27
F1.3041025675073994
aF0.33115915307381777
aF1.370594885061999
aF1.9508253988250406
aF1.050979688266309
aF0.8223268842995793
aF0.08858521919498241
aa(lp28
F3.964903744470438
aF3.4335112759978386
aF3.1297557173958
aF3.40859459219104
aF4.066931495587079
aF3.117419070611236
aF3.8480531715934108
aaa(lp29
(lp30
F2.8755509803774433
aF2.5374621809826685
aF2.5208086158064584
aF1.7337192799268462
aF2.1853027219308987
aF1.6901598807466622
aF3.3780628173198166
aa(lp31
F1.8309684417056378
aF1.2358121990588367
aF2.5113306995353293
aF1.6241733101208269
aF2.5015651390164084
aF1.9223493148377224
aF1.8528354037392956
aa(lp32
F1.8432255526348655
aF0.9615467012698182
aF1.0653250428984833
aF1.7244032727231386
aF2.2370147204283963
aF0.6846098665737748
aF0.6558951698514408
aaa(lp33
(lp34
F4.339715035881787
aF4.085646927417743
aF2.4142788981761845
aF2.835871599826238
aF3.513704003055946
aF3.767647195107686
aF3.3050708095228893
aa(lp35
F1.0274843333882835
aF1.8287343991657488
aF1.3905289348149428
aF2.1567220286141984
aF0.9099586232383131
aF1.9506065086502575
aF1.1445484573885834
aa(lp36
F1.3309021434862904
aF0.4327123572184186
aF1.7471736835018425
aF0.8367912289352218
aF2.057930441599276
aF1.5702584111741023
aF0.9170545881563946
aaa(lp37
(lp38
F1.358548747004006
aF0.06268953437650036
aF-0.4089598452933347
aF0.22855237982079943
aF1.152159408676436
aF0.9874529230112986
aF0.47833606180526245
aa(lp39
F0.6574512074810901
aF1.8552081380127659
aF0.7963647230588744
aF0.8843920816193696
aF1.5942185049593955
aF1.4891867037587876
aF1.260369642956507
aa(lp40
F2.91574427642321
aF3.391519927962784
aF3.7136359372779464
aF2.796263981499049
aF3.4072289522891426
aF2.2937423471894665
aF4.297269291470579
aaa.I6
.F-15.156896909899885
.